; Function Attrs: uwtable
define dso_local noundef zeroext i1 @_ZThn8_N10cmDebugger26cmDebuggerPipeClient_POSIX5writeEPKvm(ptr noundef %0, ptr nocapture noundef readonly %1, i64 noundef %2) unnamed_addr #9 align 2 {
  %4 = getelementptr inbounds i8, ptr %0, i64 -8
  %5 = load ptr, ptr %4, align 8
  %6 = getelementptr inbounds i8, ptr %5, i64 16
  %7 = load ptr, ptr %6, align 8
  %8 = tail call noundef zeroext i1 %7(ptr noundef nonnull align 8 dereferenceable(68) %4)
  br i1 %8, label %9, label %_ZN10cmDebugger26cmDebuggerPipeClient_POSIX5writeEPKvm.exit

9:                                                ; preds = %3
  %10 = getelementptr inbounds i8, ptr %0, i64 56
  %11 = load i32, ptr %10, align 8
  %12 = tail call i64 @write(i32 noundef %11, ptr noundef %1, i64 noundef %2)
  %13 = trunc i64 %12 to i32
  %14 = icmp slt i32 %13, 0
  br i1 %14, label %15, label %_ZN10cmDebugger26cmDebuggerPipeClient_POSIX5writeEPKvm.exit

15:                                               ; preds = %9
  %16 = load ptr, ptr %4, align 8
  %17 = getelementptr inbounds i8, ptr %16, i64 24
  %18 = load ptr, ptr %17, align 8
  tail call void %18(ptr noundef nonnull align 8 dereferenceable(68) %4)
  br label %_ZN10cmDebugger26cmDebuggerPipeClient_POSIX5writeEPKvm.exit

_ZN10cmDebugger26cmDebuggerPipeClient_POSIX5writeEPKvm.exit: ; preds = %3, %9, %15
  %.0.i = phi i32 [ %13, %15 ], [ %13, %9 ], [ 0, %3 ]
  %19 = icmp sgt i32 %.0.i, 0
  ret i1 %19
}